target datalayout = "e-m:e-p270:32:32-p271:32:32-p272:64:64-i64:64-i128:128-f80:128-n8:16:32:64-S128"
target triple = "x86_64-pc-linux-gnu"

; Function Attrs: nounwind uwtable
define internal i32 @math_log(ptr noundef %0) #0 {
  %2 = alloca ptr, align 8
  %3 = alloca double, align 8
  %4 = alloca double, align 8
  %5 = alloca double, align 8
  store ptr %0, ptr %2, align 8, !tbaa !4
  call void @llvm.lifetime.start.p0(i64 8, ptr %3) #6
  %6 = load ptr, ptr %2, align 8, !tbaa !4
  %7 = call double @luaL_checknumber(ptr noundef %6, i32 noundef 1)
  store double %7, ptr %3, align 8, !tbaa !14
  call void @llvm.lifetime.start.p0(i64 8, ptr %4) #6
  %8 = load ptr, ptr %2, align 8, !tbaa !4
  %9 = call i32 @lua_type(ptr noundef %8, i32 noundef 2)
  %10 = icmp sle i32 %9, 0
  br i1 %10, label %11, label %14

11:                                               ; preds = %1
  %12 = load double, ptr %3, align 8, !tbaa !14
  %13 = call double @log(double noundef %12) #6, !tbaa !12
  store double %13, ptr %4, align 8, !tbaa !14
  br label %36

14:                                               ; preds = %1
  call void @llvm.lifetime.start.p0(i64 8, ptr %5) #6
  %15 = load ptr, ptr %2, align 8, !tbaa !4
  %16 = call double @luaL_checknumber(ptr noundef %15, i32 noundef 2)
  store double %16, ptr %5, align 8, !tbaa !14
  %17 = load double, ptr %5, align 8, !tbaa !14
  %18 = fcmp oeq double %17, 2.000000e+00
  br i1 %18, label %19, label %22

19:                                               ; preds = %14
  %20 = load double, ptr %3, align 8, !tbaa !14
  %21 = call double @log2(double noundef %20) #6, !tbaa !12
  store double %21, ptr %4, align 8, !tbaa !14
  br label %35

22:                                               ; preds = %14
  %23 = load double, ptr %5, align 8, !tbaa !14
  %24 = fcmp oeq double %23, 1.000000e+01
  br i1 %24, label %25, label %28

25:                                               ; preds = %22
  %26 = load double, ptr %3, align 8, !tbaa !14
  %27 = call double @log10(double noundef %26) #6, !tbaa !12
  store double %27, ptr %4, align 8, !tbaa !14
  br label %34

28:                                               ; preds = %22
  %29 = load double, ptr %3, align 8, !tbaa !14
  %30 = call double @log(double noundef %29) #6, !tbaa !12
  %31 = load double, ptr %5, align 8, !tbaa !14
  %32 = call double @log(double noundef %31) #6, !tbaa !12
  %33 = fdiv double %30, %32
  store double %33, ptr %4, align 8, !tbaa !14
  br label %34

34:                                               ; preds = %28, %25
  br label %35

35:                                               ; preds = %34, %19
  call void @llvm.lifetime.end.p0(i64 8, ptr %5) #6
  br label %36

36:                                               ; preds = %35, %11
  %37 = load ptr, ptr %2, align 8, !tbaa !4
  %38 = load double, ptr %4, align 8, !tbaa !14
  call void @lua_pushnumber(ptr noundef %37, double noundef %38)
  call void @llvm.lifetime.end.p0(i64 8, ptr %4) #6
  call void @llvm.lifetime.end.p0(i64 8, ptr %3) #6
  ret i32 1
}