; Function Attrs: nounwind uwtable
define internal noundef i32 @math_log(ptr noundef %0) #0 {
  %2 = tail call double @luaL_checknumber(ptr noundef %0, i32 noundef 1) #6
  %3 = tail call i32 @lua_type(ptr noundef %0, i32 noundef 2) #6
  %4 = icmp slt i32 %3, 1
  br i1 %4, label %5, label %7

5:                                                ; preds = %1
  %6 = tail call double @log(double noundef %2) #6, !tbaa !8
  br label %20

7:                                                ; preds = %1
  %8 = tail call double @luaL_checknumber(ptr noundef %0, i32 noundef 2) #6
  %9 = fcmp oeq double %8, 2.000000e+00
  br i1 %9, label %10, label %12

10:                                               ; preds = %7
  %11 = tail call double @log2(double noundef %2) #6, !tbaa !8
  br label %20

12:                                               ; preds = %7
  %13 = fcmp oeq double %8, 1.000000e+01
  br i1 %13, label %14, label %16

14:                                               ; preds = %12
  %15 = tail call double @log10(double noundef %2) #6, !tbaa !8
  br label %20

16:                                               ; preds = %12
  %17 = tail call double @log(double noundef %2) #6, !tbaa !8
  %18 = tail call double @log(double noundef %8) #6, !tbaa !8
  %19 = fdiv double %17, %18
  br label %20

20:                                               ; preds = %10, %16, %14, %5
  %.0 = phi double [ %6, %5 ], [ %11, %10 ], [ %15, %14 ], [ %19, %16 ]
  tail call void @lua_pushnumber(ptr noundef %0, double noundef %.0) #6
  ret i32 1
}